; Function Attrs: nounwind uwtable
define zeroext i8 @l_Lean_KVMap_getBool(ptr noundef %0, ptr noundef %1, i8 noundef zeroext %2) local_unnamed_addr #0 {
  %4 = tail call ptr @l_Lean_KVMap_findCore(ptr noundef %0, ptr noundef %1)
  %5 = ptrtoint ptr %4 to i64
  %6 = and i64 %5, 1
  %.not.i19 = icmp eq i64 %6, 0
  br i1 %.not.i19, label %10, label %7

7:                                                ; preds = %3
  %8 = lshr i64 %5, 1
  %9 = trunc i64 %8 to i32
  br label %lean_obj_tag.exit

10:                                               ; preds = %3
  %11 = getelementptr i8, ptr %4, i64 4
  %.val.i = load i32, ptr %11, align 4
  %12 = lshr i32 %.val.i, 24
  br label %lean_obj_tag.exit

lean_obj_tag.exit:                                ; preds = %7, %10
  %.0.i = phi i32 [ %9, %7 ], [ %12, %10 ]
  %13 = icmp eq i32 %.0.i, 0
  br i1 %13, label %lean_dec.exit13, label %14

14:                                               ; preds = %lean_obj_tag.exit
  %15 = getelementptr inbounds nuw i8, ptr %4, i64 8
  %16 = load ptr, ptr %15, align 8, !tbaa !4
  %17 = ptrtoint ptr %16 to i64
  %18 = and i64 %17, 1
  %.not = icmp eq i64 %18, 0
  br i1 %.not, label %19, label %lean_inc.exit

19:                                               ; preds = %14
  %.val.i20 = load i32, ptr %16, align 4, !tbaa !8
  %20 = icmp sgt i32 %.val.i20, 0
  br i1 %20, label %21, label %23, !prof !11

21:                                               ; preds = %19
  %22 = add nuw i32 %.val.i20, 1
  store i32 %22, ptr %16, align 4, !tbaa !8
  br label %lean_inc.exit

23:                                               ; preds = %19
  %.not.i21 = icmp eq i32 %.val.i20, 0
  br i1 %.not.i21, label %lean_inc.exit, label %24

24:                                               ; preds = %23
  tail call void @lean_inc_ref_cold(ptr noundef nonnull %16) #6
  br label %lean_inc.exit

lean_inc.exit:                                    ; preds = %24, %23, %21, %14
  br i1 %.not.i19, label %25, label %lean_dec.exit14

25:                                               ; preds = %lean_inc.exit
  %26 = load i32, ptr %4, align 4, !tbaa !8
  %27 = icmp sgt i32 %26, 1
  br i1 %27, label %28, label %30, !prof !11

28:                                               ; preds = %25
  %29 = add nsw i32 %26, -1
  store i32 %29, ptr %4, align 4, !tbaa !8
  br label %lean_dec.exit14

30:                                               ; preds = %25
  %.not.i = icmp eq i32 %26, 0
  br i1 %.not.i, label %lean_dec.exit14, label %31

31:                                               ; preds = %30
  tail call void @lean_dec_ref_cold(ptr noundef nonnull %4) #6
  br label %lean_dec.exit14

lean_dec.exit14:                                  ; preds = %31, %30, %28, %lean_inc.exit
  br i1 %.not, label %lean_obj_tag.exit25, label %lean_obj_tag.exit25.thread

lean_obj_tag.exit25:                              ; preds = %lean_dec.exit14
  %32 = getelementptr i8, ptr %16, i64 4
  %.val.i24 = load i32, ptr %32, align 4
  %.mask = and i32 %.val.i24, -16777216
  %33 = icmp eq i32 %.mask, 16777216
  br i1 %33, label %37, label %45

lean_obj_tag.exit25.thread:                       ; preds = %lean_dec.exit14
  %34 = and i64 %17, 8589934590
  %35 = icmp eq i64 %34, 2
  br i1 %35, label %.thread, label %lean_dec.exit13

.thread:                                          ; preds = %lean_obj_tag.exit25.thread
  %36 = getelementptr i8, ptr %16, i64 8
  %.val28 = load i8, ptr %36, align 1, !tbaa !14
  br label %lean_dec.exit13

37:                                               ; preds = %lean_obj_tag.exit25
  %38 = getelementptr i8, ptr %16, i64 8
  %.val = load i8, ptr %38, align 1, !tbaa !14
  %39 = load i32, ptr %16, align 4, !tbaa !8
  %40 = icmp sgt i32 %39, 1
  br i1 %40, label %41, label %43, !prof !11

41:                                               ; preds = %37
  %42 = add nsw i32 %39, -1
  store i32 %42, ptr %16, align 4, !tbaa !8
  br label %lean_dec.exit13

43:                                               ; preds = %37
  %.not.i15 = icmp eq i32 %39, 0
  br i1 %.not.i15, label %lean_dec.exit13, label %44

44:                                               ; preds = %43
  tail call void @lean_dec_ref_cold(ptr noundef nonnull %16) #6
  br label %lean_dec.exit13

45:                                               ; preds = %lean_obj_tag.exit25
  %46 = load i32, ptr %16, align 4, !tbaa !8
  %47 = icmp sgt i32 %46, 1
  br i1 %47, label %48, label %50, !prof !11

48:                                               ; preds = %45
  %49 = add nsw i32 %46, -1
  store i32 %49, ptr %16, align 4, !tbaa !8
  br label %lean_dec.exit13

50:                                               ; preds = %45
  %.not.i17 = icmp eq i32 %46, 0
  br i1 %.not.i17, label %lean_dec.exit13, label %51

51:                                               ; preds = %50
  tail call void @lean_dec_ref_cold(ptr noundef nonnull %16) #6
  br label %lean_dec.exit13

lean_dec.exit13:                                  ; preds = %lean_obj_tag.exit25.thread, %.thread, %48, %50, %51, %41, %43, %44, %lean_obj_tag.exit
  %.0 = phi i8 [ %2, %lean_obj_tag.exit ], [ %.val, %44 ], [ %.val, %43 ], [ %.val, %41 ], [ %2, %51 ], [ %2, %50 ], [ %2, %48 ], [ %.val28, %.thread ], [ %2, %lean_obj_tag.exit25.thread ]
  ret i8 %.0
}